; Function Attrs: nounwind uwtable
define i32 @H5Pget_edc_check(i64 noundef %0) local_unnamed_addr #0 {
  %2 = alloca i32, align 4
  %3 = load i8, ptr @H5_libinit_g, align 1
  %4 = trunc i8 %3 to i1
  %5 = load i8, ptr @H5_libterm_g, align 1
  %6 = trunc i8 %5 to i1
  %7 = select i1 %4, i1 true, i1 %6
  br i1 %7, label %15, label %8

8:                                                ; preds = %1
  %9 = tail call i32 @H5_init_library() #8
  %10 = icmp slt i32 %9, 0
  br i1 %10, label %11, label %15

11:                                               ; preds = %8
  %12 = load i64, ptr @H5E_FUNC_g, align 8
  %13 = load i64, ptr @H5E_CANTINIT_g, align 8
  %14 = tail call i32 (ptr, ptr, i32, i64, i64, ptr, ...) @H5E_printf_stack(ptr noundef nonnull @.str.1, ptr noundef nonnull @__func__.H5Pget_edc_check, i32 noundef 1275, i64 noundef %12, i64 noundef %13, ptr noundef nonnull @.str.2) #8
  store i32 -1, ptr %2, align 4
  br label %.thread14

15:                                               ; preds = %8, %1
  %16 = tail call i32 @H5CX_push() #8
  %17 = icmp slt i32 %16, 0
  br i1 %17, label %18, label %22

18:                                               ; preds = %15
  %19 = load i64, ptr @H5E_FUNC_g, align 8
  %20 = load i64, ptr @H5E_CANTSET_g, align 8
  %21 = tail call i32 (ptr, ptr, i32, i64, i64, ptr, ...) @H5E_printf_stack(ptr noundef nonnull @.str.1, ptr noundef nonnull @__func__.H5Pget_edc_check, i32 noundef 1275, i64 noundef %19, i64 noundef %20, ptr noundef nonnull @.str.3) #8
  store i32 -1, ptr %2, align 4
  br label %.thread14

22:                                               ; preds = %15
  %23 = tail call i32 @H5E_clear_stack() #8
  %24 = load i64, ptr @H5P_CLS_DATASET_XFER_ID_g, align 8
  %25 = tail call ptr @H5P_object_verify(i64 noundef %0, i64 noundef %24) #8
  %26 = icmp eq ptr %25, null
  br i1 %26, label %27, label %31

27:                                               ; preds = %22
  %28 = load i64, ptr @H5E_ID_g, align 8
  %29 = load i64, ptr @H5E_BADID_g, align 8
  %30 = tail call i32 (ptr, ptr, i32, i64, i64, ptr, ...) @H5E_printf_stack(ptr noundef nonnull @.str.1, ptr noundef nonnull @__func__.H5Pget_edc_check, i32 noundef 1279, i64 noundef %28, i64 noundef %29, ptr noundef nonnull @.str.5) #8
  br label %.thread17

31:                                               ; preds = %22
  %32 = call i32 @H5P_get(ptr noundef nonnull %25, ptr noundef nonnull @.str.26, ptr noundef nonnull %2) #8
  %33 = icmp slt i32 %32, 0
  br i1 %33, label %34, label %39

34:                                               ; preds = %31
  %35 = load i64, ptr @H5E_PLIST_g, align 8
  %36 = load i64, ptr @H5E_CANTSET_g, align 8
  %37 = call i32 (ptr, ptr, i32, i64, i64, ptr, ...) @H5E_printf_stack(ptr noundef nonnull @.str.1, ptr noundef nonnull @__func__.H5Pget_edc_check, i32 noundef 1283, i64 noundef %35, i64 noundef %36, ptr noundef nonnull @.str.23) #8
  br label %.thread17

.thread17:                                        ; preds = %34, %27
  store i32 -1, ptr %2, align 4
  %38 = call i32 @H5CX_pop(i1 noundef zeroext true) #8
  br label %.thread14

39:                                               ; preds = %31
  %40 = call i32 @H5CX_pop(i1 noundef zeroext true) #8
  br label %42

.thread14:                                        ; preds = %18, %11, %.thread17
  %41 = call i32 @H5E_dump_api_stack() #8
  br label %42

42:                                               ; preds = %39, %.thread14
  %43 = load i32, ptr %2, align 4
  ret i32 %43
}